	.file	"thread.c"
__SP_H__ = 0x3e
__SP_L__ = 0x3d
__SREG__ = 0x3f
__RAMPZ__ = 0x3b
__tmp_reg__ = 0
__zero_reg__ = 1
	.text
.Ltext0:
	.cfi_sections	.debug_frame
	.comm	thread_stack_0,512,1
	.comm	thread_stack_1,512,1
	.comm	thread_stack_2,512,1
	.section	.text.setup_threads,"ax",@progbits
.global	setup_threads
	.type	setup_threads, @function
setup_threads:
.LFB6:
	.file 1 ".././thread.c"
	.loc 1 12 0
	.cfi_startproc
	push r28
.LCFI0:
	.cfi_def_cfa_offset 4
	.cfi_offset 28, -3
	push r29
.LCFI1:
	.cfi_def_cfa_offset 5
	.cfi_offset 29, -4
	in r28,__SP_L__
	in r29,__SP_H__
.LCFI2:
	.cfi_def_cfa_register 28
	sbiw r28,8
.LCFI3:
	.cfi_def_cfa_offset 13
	in __tmp_reg__,__SREG__
	cli
	out __SP_H__,r29
	out __SREG__,__tmp_reg__
	out __SP_L__,r28
/* prologue: function */
/* frame size = 8 */
/* stack size = 10 */
.L__stack_usage = 10
	std Y+4,r25
	std Y+3,r24
	std Y+6,r23
	std Y+5,r22
	std Y+8,r21
	std Y+7,r20
	.loc 1 17 0
	ldd r24,Y+5
	ldd r25,Y+6
	subi r24,1
	sbci r25,-2
	std Y+2,r25
	std Y+1,r24
	.loc 1 18 0
	ldd r24,Y+1
	ldd r25,Y+2
	movw r30,r24
	st Z,__zero_reg__
	.loc 1 19 0
	ldd r24,Y+1
	ldd r25,Y+2
	sbiw r24,1
	movw r30,r24
	st Z,__zero_reg__
	.loc 1 20 0
	ldd r24,Y+1
	ldd r25,Y+2
	sbiw r24,3
	std Y+2,r25
	std Y+1,r24
	.loc 1 21 0
	ldd r24,Y+7
	ldd r25,Y+8
	mov r18,r24
	ldd r24,Y+1
	ldd r25,Y+2
	movw r30,r24
	st Z,r18
	.loc 1 22 0
	ldd r24,Y+1
	ldd r25,Y+2
	sbiw r24,1
	ldd r18,Y+7
	ldd r19,Y+8
	mov r18,r19
	clr r19
	movw r30,r24
	st Z,r18
	.loc 1 23 0
	ldd r24,Y+1
	ldd r25,Y+2
	sbiw r24,3
	std Y+2,r25
	std Y+1,r24
	.loc 1 26 0
	ldd r24,Y+1
	ldd r25,Y+2
	sbiw r24,33
	ldi r20,lo8(33)
	ldi r21,0
	ldi r22,0
	ldi r23,0
	call memset
	.loc 1 28 0
	ldd r24,Y+1
	ldd r25,Y+2
	movw r18,r24
	subi r18,33
	sbc r19,__zero_reg__
	ldd r24,Y+3
	ldd r25,Y+4
	movw r30,r24
	std Z+1,r19
	st Z,r18
	.loc 1 29 0
	nop
/* epilogue start */
	adiw r28,8
	in __tmp_reg__,__SREG__
	cli
	out __SP_H__,r29
	out __SREG__,__tmp_reg__
	out __SP_L__,r28
	pop r29
	pop r28
	ret
	.cfi_endproc
.LFE6:
	.size	setup_threads, .-setup_threads
	.comm	threadList,8,1
.global	currentThread
	.section	.bss.currentThread,"aw",@nobits
	.type	currentThread, @object
	.size	currentThread, 2
currentThread:
	.zero	2
	.section	.text.switch_thread_new,"ax",@progbits
.global	switch_thread_new
	.type	switch_thread_new, @function
switch_thread_new:
.LFB7:
	.loc 1 35 0
	.cfi_startproc
	push r28
.LCFI4:
	.cfi_def_cfa_offset 4
	.cfi_offset 28, -3
	push r29
.LCFI5:
	.cfi_def_cfa_offset 5
	.cfi_offset 29, -4
	in r28,__SP_L__
	in r29,__SP_H__
.LCFI6:
	.cfi_def_cfa_register 28
/* prologue: function */
/* frame size = 0 */
/* stack size = 2 */
.L__stack_usage = 2
	.loc 1 36 0
	nop
/* epilogue start */
	.loc 1 37 0
	pop r29
	pop r28
	ret
	.cfi_endproc
.LFE7:
	.size	switch_thread_new, .-switch_thread_new
	.section	.text.get_thread_by_pid,"ax",@progbits
.global	get_thread_by_pid
	.type	get_thread_by_pid, @function
get_thread_by_pid:
.LFB8:
	.loc 1 40 0
	.cfi_startproc
	push r28
.LCFI7:
	.cfi_def_cfa_offset 4
	.cfi_offset 28, -3
	push r29
.LCFI8:
	.cfi_def_cfa_offset 5
	.cfi_offset 29, -4
	push __zero_reg__
	push __zero_reg__
.LCFI9:
	.cfi_def_cfa_offset 7
	in r28,__SP_L__
	in r29,__SP_H__
.LCFI10:
	.cfi_def_cfa_register 28
/* prologue: function */
/* frame size = 2 */
/* stack size = 4 */
.L__stack_usage = 4
	std Y+2,r25
	std Y+1,r24
	.loc 1 41 0
	ldd r24,Y+1
	ldd r25,Y+2
	lsl r24
	rol r25
	lsl r24
	rol r25
	subi r24,lo8(-(threadList))
	sbci r25,hi8(-(threadList))
/* epilogue start */
	.loc 1 42 0
	pop __tmp_reg__
	pop __tmp_reg__
	pop r29
	pop r28
	ret
	.cfi_endproc
.LFE8:
	.size	get_thread_by_pid, .-get_thread_by_pid
	.section	.text.delay_thread_ms,"ax",@progbits
.global	delay_thread_ms
	.type	delay_thread_ms, @function
delay_thread_ms:
.LFB9:
	.loc 1 45 0
	.cfi_startproc
	push r28
.LCFI11:
	.cfi_def_cfa_offset 4
	.cfi_offset 28, -3
	push r29
.LCFI12:
	.cfi_def_cfa_offset 5
	.cfi_offset 29, -4
	rcall .
	push __zero_reg__
.LCFI13:
	.cfi_def_cfa_offset 9
	in r28,__SP_L__
	in r29,__SP_H__
.LCFI14:
	.cfi_def_cfa_register 28
/* prologue: function */
/* frame size = 4 */
/* stack size = 6 */
.L__stack_usage = 6
	std Y+4,r25
	std Y+3,r24
	.loc 1 46 0
/* #APP */
 ;  46 ".././thread.c" 1
	cli
 ;  0 "" 2
	.loc 1 47 0
/* #NOAPP */
	lds r24,currentThread
	lds r25,currentThread+1
	call get_thread_by_pid
	std Y+2,r25
	std Y+1,r24
	.loc 1 48 0
	ldd r24,Y+1
	ldd r25,Y+2
	ldi r18,lo8(3)
	movw r30,r24
	std Z+5,r18
	.loc 1 50 0
	ldd r18,Y+3
	ldd r19,Y+4
	ldd r24,Y+1
	ldd r25,Y+2
	movw r30,r24
	std Z+7,r19
	std Z+6,r18
	.loc 1 51 0
	ldi r24,lo8(-124)
	ldi r25,0
	.loc 1 51 0
	ldi r18,lo8(-71)
	ldi r19,lo8(9)
	movw r30,r24
	std Z+1,r19
	st Z,r18
	.loc 1 53 0
/* #APP */
 ;  53 ".././thread.c" 1
	sei
 ;  0 "" 2
	.loc 1 54 0
/* #NOAPP */
	nop
/* epilogue start */
	pop __tmp_reg__
	pop __tmp_reg__
	pop __tmp_reg__
	pop __tmp_reg__
	pop r29
	pop r28
	ret
	.cfi_endproc
.LFE9:
	.size	delay_thread_ms, .-delay_thread_ms
.global	__mulsf3
.global	__ltsf2
.global	__gtsf2
.global	__divsf3
.global	__fixunssfsi
	.section	.text.delay_thread_us,"ax",@progbits
.global	delay_thread_us
	.type	delay_thread_us, @function
delay_thread_us:
.LFB10:
	.loc 1 57 0
	.cfi_startproc
	push r28
.LCFI15:
	.cfi_def_cfa_offset 4
	.cfi_offset 28, -3
	push r29
.LCFI16:
	.cfi_def_cfa_offset 5
	.cfi_offset 29, -4
	in r28,__SP_L__
	in r29,__SP_H__
.LCFI17:
	.cfi_def_cfa_register 28
	sbiw r28,36
.LCFI18:
	.cfi_def_cfa_offset 41
	in __tmp_reg__,__SREG__
	cli
	out __SP_H__,r29
	out __SREG__,__tmp_reg__
	out __SP_L__,r28
/* prologue: function */
/* frame size = 36 */
/* stack size = 38 */
.L__stack_usage = 38
	std Y+33,r22
	std Y+34,r23
	std Y+35,r24
	std Y+36,r25
	.loc 1 58 0
/* #APP */
 ;  58 ".././thread.c" 1
	cli
 ;  0 "" 2
/* #NOAPP */
	ldd r24,Y+33
	ldd r25,Y+34
	ldd r26,Y+35
	ldd r27,Y+36
	std Y+1,r24
	std Y+2,r25
	std Y+3,r26
	std Y+4,r27
.LBB30:
.LBB31:
	.file 2 "d:\\program files\\atstudio\\7.0\\toolchain\\avr8\\avr8-gnu-toolchain\\avr\\include\\util\\delay.h"
	.loc 2 281 0
	ldi r18,lo8(-85)
	ldi r19,lo8(-86)
	ldi r20,lo8(-86)
	ldi r21,lo8(64)
	ldd r22,Y+1
	ldd r23,Y+2
	ldd r24,Y+3
	ldd r25,Y+4
	call __mulsf3
	movw r26,r24
	movw r24,r22
	std Y+5,r24
	std Y+6,r25
	std Y+7,r26
	std Y+8,r27
	.loc 2 282 0
	ldi r18,0
	ldi r19,0
	ldi r20,lo8(-128)
	ldi r21,lo8(64)
	ldd r22,Y+1
	ldd r23,Y+2
	ldd r24,Y+3
	ldd r25,Y+4
	call __mulsf3
	movw r26,r24
	movw r24,r22
	std Y+9,r24
	std Y+10,r25
	std Y+11,r26
	std Y+12,r27
	.loc 2 283 0
	ldi r18,0
	ldi r19,0
	ldi r20,lo8(-128)
	ldi r21,lo8(63)
	ldd r22,Y+5
	ldd r23,Y+6
	ldd r24,Y+7
	ldd r25,Y+8
	call __ltsf2
	tst r24
	brge .L29
	.loc 2 284 0
	ldi r24,lo8(1)
	std Y+13,r24
	rjmp .L10
.L29:
	.loc 2 285 0
	ldi r18,0
	ldi r19,lo8(-1)
	ldi r20,lo8(127)
	ldi r21,lo8(71)
	ldd r22,Y+9
	ldd r23,Y+10
	ldd r24,Y+11
	ldd r25,Y+12
	call __gtsf2
	cp __zero_reg__,r24
	brlt .+2
	rjmp .L30
	.loc 2 287 0
	ldi r18,0
	ldi r19,0
	ldi r20,lo8(122)
	ldi r21,lo8(68)
	ldd r22,Y+1
	ldd r23,Y+2
	ldd r24,Y+3
	ldd r25,Y+4
	call __divsf3
	movw r26,r24
	movw r24,r22
	std Y+14,r24
	std Y+15,r25
	std Y+16,r26
	std Y+17,r27
.LBB32:
.LBB33:
	.loc 2 191 0
	ldi r18,0
	ldi r19,0
	ldi r20,lo8(122)
	ldi r21,lo8(69)
	ldd r22,Y+14
	ldd r23,Y+15
	ldd r24,Y+16
	ldd r25,Y+17
	call __mulsf3
	movw r26,r24
	movw r24,r22
	std Y+18,r24
	std Y+19,r25
	std Y+20,r26
	std Y+21,r27
	.loc 2 192 0
	ldi r18,0
	ldi r19,0
	ldi r20,lo8(-128)
	ldi r21,lo8(63)
	ldd r22,Y+18
	ldd r23,Y+19
	ldd r24,Y+20
	ldd r25,Y+21
	call __ltsf2
	tst r24
	brge .L31
	.loc 2 193 0
	ldi r24,lo8(1)
	ldi r25,0
	std Y+23,r25
	std Y+22,r24
	rjmp .L15
.L31:
	.loc 2 194 0
	ldi r18,0
	ldi r19,lo8(-1)
	ldi r20,lo8(127)
	ldi r21,lo8(71)
	ldd r22,Y+18
	ldd r23,Y+19
	ldd r24,Y+20
	ldd r25,Y+21
	call __gtsf2
	cp __zero_reg__,r24
	brge .L32
	.loc 2 197 0
	ldi r18,0
	ldi r19,0
	ldi r20,lo8(32)
	ldi r21,lo8(65)
	ldd r22,Y+14
	ldd r23,Y+15
	ldd r24,Y+16
	ldd r25,Y+17
	call __mulsf3
	movw r26,r24
	movw r24,r22
	movw r22,r24
	movw r24,r26
	call __fixunssfsi
	movw r26,r24
	movw r24,r22
	std Y+23,r25
	std Y+22,r24
	rjmp .L18
.L19:
	ldi r24,lo8(-112)
	ldi r25,lo8(1)
	std Y+25,r25
	std Y+24,r24
.LBB34:
.LBB35:
	.file 3 "d:\\program files\\atstudio\\7.0\\toolchain\\avr8\\avr8-gnu-toolchain\\avr\\include\\util\\delay_basic.h"
	.loc 3 105 0
	ldd r24,Y+24
	ldd r25,Y+25
/* #APP */
 ;  105 "d:\program files\atstudio\7.0\toolchain\avr8\avr8-gnu-toolchain\avr\include\util\delay_basic.h" 1
	1: sbiw r24,1
	brne 1b
 ;  0 "" 2
/* #NOAPP */
	std Y+25,r25
	std Y+24,r24
.LBE35:
.LBE34:
	.loc 2 202 0
	ldd r24,Y+22
	ldd r25,Y+23
	sbiw r24,1
	std Y+23,r25
	std Y+22,r24
.L18:
	.loc 2 198 0
	ldd r24,Y+22
	ldd r25,Y+23
	or r24,r25
	brne .L19
	rjmp .L10
.L32:
	.loc 2 207 0
	ldd r22,Y+18
	ldd r23,Y+19
	ldd r24,Y+20
	ldd r25,Y+21
	call __fixunssfsi
	movw r26,r24
	movw r24,r22
	std Y+23,r25
	std Y+22,r24
.L15:
	ldd r24,Y+22
	ldd r25,Y+23
	std Y+27,r25
	std Y+26,r24
.LBB36:
.LBB37:
	.loc 3 105 0
	ldd r24,Y+26
	ldd r25,Y+27
/* #APP */
 ;  105 "d:\program files\atstudio\7.0\toolchain\avr8\avr8-gnu-toolchain\avr\include\util\delay_basic.h" 1
	1: sbiw r24,1
	brne 1b
 ;  0 "" 2
/* #NOAPP */
	std Y+27,r25
	std Y+26,r24
	rjmp .L10
.L30:
.LBE37:
.LBE36:
.LBE33:
.LBE32:
	.loc 2 289 0
	ldi r18,0
	ldi r19,0
	ldi r20,lo8(127)
	ldi r21,lo8(67)
	ldd r22,Y+5
	ldd r23,Y+6
	ldd r24,Y+7
	ldd r25,Y+8
	call __gtsf2
	cp __zero_reg__,r24
	brge .L33
.LBB38:
	.loc 2 291 0
	ldd r22,Y+9
	ldd r23,Y+10
	ldd r24,Y+11
	ldd r25,Y+12
	call __fixunssfsi
	movw r26,r24
	movw r24,r22
	std Y+29,r25
	std Y+28,r24
	ldd r24,Y+28
	ldd r25,Y+29
	std Y+31,r25
	std Y+30,r24
.LBB39:
.LBB40:
	.loc 3 105 0
	ldd r24,Y+30
	ldd r25,Y+31
/* #APP */
 ;  105 "d:\program files\atstudio\7.0\toolchain\avr8\avr8-gnu-toolchain\avr\include\util\delay_basic.h" 1
	1: sbiw r24,1
	brne 1b
 ;  0 "" 2
/* #NOAPP */
	std Y+31,r25
	std Y+30,r24
.LBE40:
.LBE39:
.LBE38:
.LBE31:
.LBE30:
	.loc 1 60 0
	rjmp .L7
.L33:
.LBB44:
.LBB43:
	.loc 2 296 0
	ldd r22,Y+5
	ldd r23,Y+6
	ldd r24,Y+7
	ldd r25,Y+8
	call __fixunssfsi
	movw r26,r24
	movw r24,r22
	std Y+13,r24
.L10:
	ldd r24,Y+13
	std Y+32,r24
.LBB41:
.LBB42:
	.loc 3 83 0
	ldd r24,Y+32
/* #APP */
 ;  83 "d:\program files\atstudio\7.0\toolchain\avr8\avr8-gnu-toolchain\avr\include\util\delay_basic.h" 1
	1: dec r24
	brne 1b
 ;  0 "" 2
/* #NOAPP */
	std Y+32,r24
.LBE42:
.LBE41:
.LBE43:
.LBE44:
	.loc 1 60 0
	nop
.L7:
/* epilogue start */
	.loc 1 62 0
	adiw r28,36
	in __tmp_reg__,__SREG__
	cli
	out __SP_H__,r29
	out __SREG__,__tmp_reg__
	out __SP_L__,r28
	pop r29
	pop r28
	ret
	.cfi_endproc
.LFE10:
	.size	delay_thread_us, .-delay_thread_us
	.text
.Letext0:
	.file 4 "d:\\program files\\atstudio\\7.0\\toolchain\\avr8\\avr8-gnu-toolchain\\avr\\include\\stdint.h"
	.file 5 ".././thread.h"